; Function Attrs: nounwind uwtable
define hidden void @zif_opcache_compile_file(ptr nocapture noundef readonly %0, ptr nocapture noundef writeonly %1) #0 {
  %3 = alloca ptr, align 8
  %4 = alloca %struct._zend_file_handle, align 8
  %5 = alloca [1 x %struct.__jmp_buf_tag], align 16
  %6 = getelementptr inbounds i8, ptr %0, i64 44
  %7 = load i32, ptr %6, align 4
  %8 = call i32 (i32, ptr, ...) @zend_parse_parameters(i32 noundef %7, ptr noundef nonnull @.str.135, ptr noundef nonnull %3) #14
  %9 = icmp eq i32 %8, -1
  br i1 %9, label %10, label %13

10:                                               ; preds = %2
  %11 = load ptr, ptr getelementptr inbounds (%struct._zend_executor_globals, ptr @executor_globals, i64 0, i32 50), align 8
  %12 = icmp ne ptr %11, null
  call void @llvm.assume(i1 %12)
  br label %41

13:                                               ; preds = %2
  %14 = load i8, ptr @accel_startup_ok, align 1
  %15 = and i8 %14, 1
  %.not = icmp eq i8 %15, 0
  br i1 %.not, label %16, label %18

16:                                               ; preds = %13
  call void (i32, ptr, ...) @zend_error(i32 noundef 8, ptr noundef nonnull @.str.136) #14
  %17 = getelementptr inbounds i8, ptr %1, i64 8
  store i32 2, ptr %17, align 8
  br label %41

18:                                               ; preds = %13
  %19 = load ptr, ptr %3, align 8
  call void @zend_stream_init_filename_ex(ptr noundef nonnull %4, ptr noundef %19) #14
  %20 = load ptr, ptr getelementptr inbounds (%struct._zend_executor_globals, ptr @executor_globals, i64 0, i32 17), align 8
  %21 = load i32, ptr getelementptr inbounds (%struct._zend_compiler_globals, ptr @compiler_globals, i64 0, i32 21), align 4
  %22 = or i32 %21, 16384
  store i32 %22, ptr getelementptr inbounds (%struct._zend_compiler_globals, ptr @compiler_globals, i64 0, i32 21), align 4
  %23 = and i32 %21, 32768
  %.not10 = icmp eq i32 %23, 0
  br i1 %.not10, label %26, label %24

24:                                               ; preds = %18
  %25 = call ptr @persistent_compile_file(ptr noundef nonnull %4, i32 noundef 2) #14
  br label %37

26:                                               ; preds = %18
  %27 = load ptr, ptr getelementptr inbounds (%struct._zend_executor_globals, ptr @executor_globals, i64 0, i32 7), align 8
  store ptr %5, ptr getelementptr inbounds (%struct._zend_executor_globals, ptr @executor_globals, i64 0, i32 7), align 8
  %28 = call i32 @__sigsetjmp(ptr noundef nonnull %5, i32 noundef 0) #17
  %29 = icmp eq i32 %28, 0
  br i1 %29, label %30, label %32

30:                                               ; preds = %26
  %31 = call ptr @persistent_compile_file(ptr noundef nonnull %4, i32 noundef 2) #14
  br label %36

32:                                               ; preds = %26
  store ptr %27, ptr getelementptr inbounds (%struct._zend_executor_globals, ptr @executor_globals, i64 0, i32 7), align 8
  store ptr %20, ptr getelementptr inbounds (%struct._zend_executor_globals, ptr @executor_globals, i64 0, i32 17), align 8
  %33 = getelementptr inbounds i8, ptr %4, i64 40
  %34 = load ptr, ptr %33, align 8
  %35 = getelementptr inbounds i8, ptr %34, i64 24
  call void (i32, ptr, ...) @zend_error(i32 noundef 2, ptr noundef nonnull @.str.137, ptr noundef nonnull %35) #14
  br label %36

36:                                               ; preds = %32, %30
  %.0 = phi ptr [ %31, %30 ], [ null, %32 ]
  store ptr %27, ptr getelementptr inbounds (%struct._zend_executor_globals, ptr @executor_globals, i64 0, i32 7), align 8
  br label %37

37:                                               ; preds = %36, %24
  %.1 = phi ptr [ %25, %24 ], [ %.0, %36 ]
  store i32 %21, ptr getelementptr inbounds (%struct._zend_compiler_globals, ptr @compiler_globals, i64 0, i32 21), align 4
  %.not11 = icmp eq ptr %.1, null
  br i1 %.not11, label %39, label %38

38:                                               ; preds = %37
  call void @destroy_op_array(ptr noundef nonnull %.1) #14
  call void @_efree(ptr noundef nonnull %.1) #14
  br label %39

39:                                               ; preds = %37, %38
  %.sink = phi i32 [ 3, %38 ], [ 2, %37 ]
  %40 = getelementptr inbounds i8, ptr %1, i64 8
  store i32 %.sink, ptr %40, align 8
  call void @zend_destroy_file_handle(ptr noundef nonnull %4) #14
  br label %41

41:                                               ; preds = %39, %16, %10
  ret void
}